; Function Attrs: mustprogress uwtable
define hidden void @_Z6pj_logP6pj_ctxiPKcz(ptr nocapture noundef readonly %0, i32 noundef %1, ptr nocapture noundef readonly %2, ...) local_unnamed_addr #3 personality ptr @__gxx_personality_v0 {
  %4 = alloca [1 x %struct.__va_list_tag], align 16
  %5 = getelementptr inbounds i8, ptr %0, i64 36
  %6 = load i32, ptr %5, align 4
  %7 = icmp slt i32 %6, %1
  br i1 %7, label %25, label %8

8:                                                ; preds = %3
  call void @llvm.va_start.p0(ptr nonnull %4)
  %9 = load i32, ptr %5, align 4
  %10 = icmp sgt i32 %9, -1
  %11 = getelementptr inbounds i8, ptr %0, i64 32
  %12 = load i32, ptr %11, align 8
  %13 = icmp ne i32 %12, 0
  %or.cond.i.not26.i = select i1 %13, i1 true, i1 %10
  %spec.select.i.i = call i32 @llvm.abs.i32(i32 %9, i1 true)
  %14 = icmp sge i32 %spec.select.i.i, %1
  %or.cond.i = select i1 %or.cond.i.not26.i, i1 %14, i1 false
  br i1 %or.cond.i, label %15, label %_ZL7pj_vlogP6pj_ctxiPK8PJconstsPKcP13__va_list_tag.exit

15:                                               ; preds = %8
  %16 = call noalias dereferenceable_or_null(100000) ptr @malloc(i64 noundef 100000) #11
  %17 = icmp eq ptr %16, null
  br i1 %17, label %_ZL7pj_vlogP6pj_ctxiPK8PJconstsPKcP13__va_list_tag.exit, label %18

18:                                               ; preds = %15
  %19 = call i32 @vsnprintf(ptr noundef nonnull %16, i64 noundef 100000, ptr noundef %2, ptr noundef nonnull %4) #12
  %20 = getelementptr inbounds i8, ptr %16, i64 99999
  store i8 0, ptr %20, align 1
  %21 = getelementptr inbounds i8, ptr %0, i64 48
  %22 = load ptr, ptr %21, align 8
  %23 = getelementptr inbounds i8, ptr %0, i64 56
  %24 = load ptr, ptr %23, align 8
  call void %22(ptr noundef %24, i32 noundef %1, ptr noundef nonnull %16)
  call void @free(ptr noundef nonnull %16) #12
  br label %_ZL7pj_vlogP6pj_ctxiPK8PJconstsPKcP13__va_list_tag.exit

_ZL7pj_vlogP6pj_ctxiPK8PJconstsPKcP13__va_list_tag.exit: ; preds = %8, %15, %18
  call void @llvm.va_end.p0(ptr nonnull %4)
  br label %25

25:                                               ; preds = %3, %_ZL7pj_vlogP6pj_ctxiPK8PJconstsPKcP13__va_list_tag.exit
  ret void
}